Certificate:
    Data:
        Version: 3 (0x2)
        Serial Number:
            65:03:40:2b:d7:21:0e:e0:8a:2d:0c:67:21:ff:56:0a:ee:cb:4b:6a
        Signature Algorithm: sha256WithRSAEncryption
        Issuer: C=NO, O=Green AS, OU=Green Certificate Authority, CN=Green TLS CA
        Validity
            Not Before: Jun 24 17:21:27 2020 GMT
            Not After : Jun 24 17:21:27 2022 GMT
        Subject: C=NO, O=Green AS, OU=Green Certificate Authority, CN=rabbitmq
        Subject Public Key Info:
            Public Key Algorithm: rsaEncryption
                RSA Public-Key: (4096 bit)
                Modulus:
                    00:a7:f0:3e:c3:eb:21:a3:83:0d:10:0b:fc:06:3d:
                    81:76:ff:c5:5d:df:04:b2:48:01:d6:f8:95:aa:96:
                    3c:07:bd:1f:b6:a1:78:5d:5c:dc:7d:65:13:0d:26:
                    5b:56:62:7e:a9:68:72:7a:60:7f:01:a1:6d:7d:13:
                    be:0f:58:0f:18:91:51:2c:a6:43:9c:61:02:c6:8a:
                    69:e8:6d:1c:c0:c3:a4:2d:2a:46:56:2d:25:1a:0c:
                    50:e4:eb:91:7f:f6:cc:b2:8a:35:0a:bc:4f:b1:a0:
                    20:da:13:43:ee:28:bf:eb:f0:66:13:13:8d:04:0a:
                    16:12:bb:3d:da:69:fb:6a:f2:a3:5d:e0:00:dc:dc:
                    92:fb:77:ab:68:c7:f3:9c:52:10:cf:91:cc:79:cf:
                    e8:3a:e1:ef:54:41:a9:08:c8:6b:f0:c7:69:df:ab:
                    08:af:d6:09:e8:45:0a:e2:63:b5:de:5c:5d:c2:12:
                    7f:9e:7b:33:c4:72:21:b2:50:80:d0:a3:fa:c6:97:
                    e2:55:e0:d9:51:ec:0e:84:36:24:c4:7c:1b:0b:2c:
                    09:b6:df:cc:61:0b:dc:36:cb:67:2a:ad:bf:2a:73:
                    79:cf:a4:f5:e2:39:69:1b:47:c8:bb:a8:a5:b8:9c:
                    9a:f9:63:1d:12:e3:70:88:00:74:16:69:31:94:87:
                    4e:d7:c3:d4:4e:48:15:80:22:ca:fb:9d:26:a0:ae:
                    ae:69:b7:dd:f1:5b:21:45:50:8c:8b:0e:e8:63:bb:
                    cb:4b:b8:28:01:2f:ad:c7:bd:97:a1:76:8a:a9:8a:
                    20:c2:1c:64:45:40:f4:12:77:7a:52:1e:35:1f:51:
                    8f:d4:f7:4d:b5:a2:b4:d0:2a:88:72:86:35:6c:f2:
                    38:b5:b2:d1:0b:8a:fd:d7:36:32:c1:6a:f7:00:0b:
                    1f:08:94:76:22:c7:d2:0e:87:2d:76:54:5f:49:c0:
                    05:35:88:92:de:93:dc:fc:09:40:a4:02:7e:9d:ef:
                    33:0c:97:4b:d0:35:fa:c2:75:13:34:00:68:1b:87:
                    8e:91:c7:6f:66:ea:ff:59:90:a1:84:21:3c:8c:3c:
                    45:bd:2a:d5:83:63:47:06:bf:63:09:f2:c3:58:6a:
                    1f:97:33:73:29:83:c2:44:75:e6:07:29:87:14:04:
                    32:b8:ab:d0:7d:ac:ce:38:c5:50:67:cf:90:cd:f6:
                    f9:b5:cb:1f:5b:02:c0:01:9d:c5:56:db:1f:03:18:
                    e8:a9:7e:48:b4:04:36:61:fd:bc:2c:4d:81:13:8e:
                    39:71:b9:6b:b8:e9:43:1a:10:5b:ef:d0:1d:6f:a4:
                    c3:8f:aa:29:2e:09:79:8d:e2:c3:32:72:53:6d:94:
                    44:22:fd
                Exponent: 65537 (0x10001)
        X509v3 extensions:
            X509v3 Key Usage: critical
                Digital Signature, Key Encipherment
            X509v3 Basic Constraints: 
                CA:FALSE
            X509v3 Extended Key Usage: 
                TLS Web Server Authentication, TLS Web Client Authentication
            X509v3 Subject Key Identifier: 
                3E:14:F4:ED:AD:EA:3D:51:42:93:9B:7F:93:41:E7:53:AB:4D:BB:7B
            X509v3 Authority Key Identifier: 
                keyid:AF:4C:A9:87:AF:A8:6F:B8:31:15:38:B9:C8:9E:99:AA:A3:40:EA:2A

            Authority Information Access: 
                CA Issuers - URI:http://green.no/ca/tls-ca.cer

            X509v3 CRL Distribution Points: 

                Full Name:
                  URI:http://green.no/ca/tls-ca.crl

            X509v3 Subject Alternative Name: 
                DNS:green.no, DNS:www.green.no, DNS:localhost, DNS:host.docker.internal
    Signature Algorithm: sha256WithRSAEncryption
         b9:b7:73:1c:75:e6:19:c7:12:04:ee:d9:06:2f:f9:bb:b1:7f:
         c7:d3:c3:b8:3f:b5:e9:2d:93:ce:1c:89:ae:e4:88:20:03:67:
         03:a1:a1:e2:cc:87:6e:d1:f6:27:51:c8:ab:ba:30:74:75:46:
         2e:24:1c:12:37:26:1b:a2:45:1d:5e:0d:c5:11:47:e8:5e:76:
         81:fb:f8:9f:ee:ef:46:3d:a1:8f:ae:57:a6:ea:c4:50:9b:f5:
         10:3a:3e:c4:8c:9a:e1:45:63:3d:e9:48:ed:4d:5f:3a:a6:0f:
         96:85:6d:b9:80:21:ca:8f:5b:32:b0:73:a5:be:ea:b5:e9:bb:
         8a:89:63:94:a8:91:81:9d:b3:0c:21:7f:38:a9:2b:a5:14:ee:
         19:fa:92:cf:1a:41:c4:a3:a8:0b:d8:a6:cc:76:a2:1d:1d:7f:
         09:9a:d7:9c:d3:3d:ac:fc:5f:be:a5:90:9e:fe:5a:58:2f:4d:
         20:40:10:07:e3:f9:a9:1d:26:c2:0e:cb:85:59:13:03:9f:68:
         52:48:f6:5e:31:0f:0e:fc:e7:f9:88:e6:b4:49:1d:55:a8:52:
         e2:6c:06:a5:0c:48:7f:a0:96:c2:8b:b4:97:32:a6:27:7f:e9:
         35:1b:3d:7e:38:0a:09:e8:3e:f0:2d:0f:df:ca:fd:f1:e4:2d:
         63:f7:17:61:be:86:9e:0d:16:7d:36:10:17:e5:9d:16:3a:ea:
         58:51:b1:db:4a:e1:03:e2:6c:0b:00:a5:1d:22:e8:50:1c:2b:
         ba:3c:a0:f2:e9:16:c7:ca:e1:18:8d:2f:d2:30:30:b5:a3:e3:
         ef:ec:00:7b:c2:ef:77:58:dc:72:d1:1b:35:94:6c:ce:25:36:
         66:e8:f9:98:b4:94:18:99:1b:7c:05:3c:b5:c2:1a:7b:f9:aa:
         6f:47:4b:ba:ef:e8:61:fd:9c:0c:6a:c8:e2:e2:85:ed:b8:ba:
         4f:25:1f:af:e1:18:7c:2e:34:3d:35:d6:eb:9b:01:c9:dc:0f:
         2d:dc:96:e1:5a:84:2c:02:a1:66:b6:9e:b2:50:ea:fc:ee:42:
         3c:b7:95:3e:01:81:ed:42:fb:39:48:51:b3:6e:c3:72:25:c6:
         b4:a3:0d:2a:65:54:36:f0:40:57:79:a0:44:b1:8d:93:1a:6a:
         cf:5a:0a:76:d8:73:ff:80:23:35:f2:66:f3:0e:23:70:5b:af:
         b3:2d:2a:44:aa:ad:33:4b:79:7a:08:c6:ca:e8:03:55:d4:12:
         9d:09:2c:c4:6b:ef:4d:a7:1a:a8:20:1a:36:fd:56:dd:1d:5f:
         fd:e1:53:d3:8d:0b:66:67:a6:64:69:d2:df:b7:0d:68:30:4b:
         b7:ca:a3:83:56:81:d1:eb
-----BEGIN CERTIFICATE-----
MIIGczCCBFugAwIBAgIUZQNAK9chDuCKLQxnIf9WCu7LS2owDQYJKoZIhvcNAQEL
BQAwXTELMAkGA1UEBhMCTk8xETAPBgNVBAoMCEdyZWVuIEFTMSQwIgYDVQQLDBtH
cmVlbiBDZXJ0aWZpY2F0ZSBBdXRob3JpdHkxFTATBgNVBAMMDEdyZWVuIFRMUyBD
QTAeFw0yMDA2MjQxNzIxMjdaFw0yMjA2MjQxNzIxMjdaMFkxCzAJBgNVBAYTAk5P
MREwDwYDVQQKDAhHcmVlbiBBUzEkMCIGA1UECwwbR3JlZW4gQ2VydGlmaWNhdGUg
QXV0aG9yaXR5MREwDwYDVQQDDAhyYWJiaXRtcTCCAiIwDQYJKoZIhvcNAQEBBQAD
ggIPADCCAgoCggIBAKfwPsPrIaODDRAL/AY9gXb/xV3fBLJIAdb4laqWPAe9H7ah
eF1c3H1lEw0mW1ZifqlocnpgfwGhbX0Tvg9YDxiRUSymQ5xhAsaKaehtHMDDpC0q
RlYtJRoMUOTrkX/2zLKKNQq8T7GgINoTQ+4ov+vwZhMTjQQKFhK7Pdpp+2ryo13g
ANzckvt3q2jH85xSEM+RzHnP6Drh71RBqQjIa/DHad+rCK/WCehFCuJjtd5cXcIS
f557M8RyIbJQgNCj+saX4lXg2VHsDoQ2JMR8GwssCbbfzGEL3DbLZyqtvypzec+k
9eI5aRtHyLuopbicmvljHRLjcIgAdBZpMZSHTtfD1E5IFYAiyvudJqCurmm33fFb
IUVQjIsO6GO7y0u4KAEvrce9l6F2iqmKIMIcZEVA9BJ3elIeNR9Rj9T3TbWitNAq
iHKGNWzyOLWy0QuK/dc2MsFq9wALHwiUdiLH0g6HLXZUX0nABTWIkt6T3PwJQKQC
fp3vMwyXS9A1+sJ1EzQAaBuHjpHHb2bq/1mQoYQhPIw8Rb0q1YNjRwa/Ywnyw1hq
H5czcymDwkR15gcphxQEMrir0H2szjjFUGfPkM32+bXLH1sCwAGdxVbbHwMY6Kl+
SLQENmH9vCxNgROOOXG5a7jpQxoQW+/QHW+kw4+qKS4JeY3iwzJyU22URCL9AgMB
AAGjggEtMIIBKTAOBgNVHQ8BAf8EBAMCBaAwCQYDVR0TBAIwADAdBgNVHSUEFjAU
BggrBgEFBQcDAQYIKwYBBQUHAwIwHQYDVR0OBBYEFD4U9O2t6j1RQpObf5NB51Or
Tbt7MB8GA1UdIwQYMBaAFK9MqYevqG+4MRU4uciemaqjQOoqMDkGCCsGAQUFBwEB
BC0wKzApBggrBgEFBQcwAoYdaHR0cDovL2dyZWVuLm5vL2NhL3Rscy1jYS5jZXIw
LgYDVR0fBCcwJTAjoCGgH4YdaHR0cDovL2dyZWVuLm5vL2NhL3Rscy1jYS5jcmww
QgYDVR0RBDswOYIIZ3JlZW4ubm+CDHd3dy5ncmVlbi5ub4IJbG9jYWxob3N0ghRo
b3N0LmRvY2tlci5pbnRlcm5hbDANBgkqhkiG9w0BAQsFAAOCAgEAubdzHHXmGccS
BO7ZBi/5u7F/x9PDuD+16S2TzhyJruSIIANnA6Gh4syHbtH2J1HIq7owdHVGLiQc
EjcmG6JFHV4NxRFH6F52gfv4n+7vRj2hj65XpurEUJv1EDo+xIya4UVjPelI7U1f
OqYPloVtuYAhyo9bMrBzpb7qtem7ioljlKiRgZ2zDCF/OKkrpRTuGfqSzxpBxKOo
C9imzHaiHR1/CZrXnNM9rPxfvqWQnv5aWC9NIEAQB+P5qR0mwg7LhVkTA59oUkj2
XjEPDvzn+YjmtEkdVahS4mwGpQxIf6CWwou0lzKmJ3/pNRs9fjgKCeg+8C0P38r9
8eQtY/cXYb6Gng0WfTYQF+WdFjrqWFGx20rhA+JsCwClHSLoUBwrujyg8ukWx8rh
GI0v0jAwtaPj7+wAe8Lvd1jcctEbNZRsziU2Zuj5mLSUGJkbfAU8tcIae/mqb0dL
uu/oYf2cDGrI4uKF7bi6TyUfr+EYfC40PTXW65sBydwPLdyW4VqELAKhZraeslDq
/O5CPLeVPgGB7UL7OUhRs27DciXGtKMNKmVUNvBAV3mgRLGNkxpqz1oKdthz/4Aj
NfJm8w4jcFuvsy0qRKqtM0t5egjGyugDVdQSnQksxGvvTacaqCAaNv1W3R1f/eFT
040LZmemZGnS37cNaDBLt8qjg1aB0es=
-----END CERTIFICATE-----
