Certificate:
    Data:
        Version: 3 (0x2)
        Serial Number:
            42:b4:7b:06:ce:97:85:e2:32:c2:98:bd:31:bb:d4:03:f2:e1:ba:b2
        Signature Algorithm: sha256WithRSAEncryption
        Issuer: C=NO, O=Green AS, OU=Green Certificate Authority, CN=Green Root CA
        Validity
            Not Before: Jun 24 17:21:20 2020 GMT
            Not After : Jun 24 17:21:20 2030 GMT
        Subject: C=NO, O=Green AS, OU=Green Certificate Authority, CN=Green TLS CA
        Subject Public Key Info:
            Public Key Algorithm: rsaEncryption
                RSA Public-Key: (4096 bit)
                Modulus:
                    00:c2:c0:c8:6b:08:4b:e9:39:aa:bb:77:ee:ea:1e:
                    b2:a8:7e:f2:2b:74:f3:dd:ec:1b:71:1f:82:be:26:
                    ce:54:07:39:6d:36:58:41:33:6b:08:8b:8e:f0:30:
                    ad:9f:76:32:d8:22:81:61:6d:62:d2:76:a1:21:93:
                    29:08:fa:75:ac:b4:5f:0e:fb:50:fb:67:14:79:74:
                    24:df:11:f9:a7:4d:f3:c2:b6:0d:a6:fe:dc:cf:5e:
                    8a:e6:01:75:b1:b8:f9:8d:38:49:0a:c5:bc:f4:98:
                    f7:5b:9d:bc:8d:e6:67:32:8b:b0:02:69:b3:6e:3f:
                    16:f6:0c:34:cf:9a:81:89:a1:03:e1:19:10:dd:99:
                    9d:5d:3d:97:c3:cf:e2:bb:6c:0f:c9:09:68:cf:ef:
                    0a:13:8e:0e:f2:4f:42:93:28:5c:1b:c1:ca:22:d5:
                    34:20:56:0e:56:ae:11:ec:d4:8f:cb:3f:48:26:e7:
                    48:a2:22:7b:32:82:fe:71:a7:d2:ac:b7:86:f6:23:
                    35:a6:72:46:c8:3e:ce:69:aa:04:ce:3b:b3:37:44:
                    b9:18:b4:23:1b:75:0a:2e:97:36:98:00:e2:fa:c6:
                    1f:76:f5:b5:21:dc:f6:a7:74:32:e7:ab:a8:f2:37:
                    61:61:fb:58:32:07:c9:5d:4c:80:86:ad:4b:71:92:
                    78:95:a9:5b:3d:99:c1:16:11:d7:cb:c3:ab:11:39:
                    0e:8a:d8:66:8d:69:74:a8:94:72:6b:50:c9:92:b8:
                    c1:3c:69:08:32:0e:cc:06:c0:37:e5:ba:4c:5b:09:
                    3e:8a:72:2b:7e:70:56:c2:b9:35:45:5c:aa:28:cb:
                    08:a5:db:45:e7:dd:36:aa:74:16:d1:70:e9:c1:de:
                    fe:2f:78:d4:87:40:4a:95:b4:b6:33:f6:05:b0:a3:
                    00:78:f3:60:b1:fe:f7:16:bc:6a:42:1e:ee:50:41:
                    e5:95:86:fd:36:ab:53:bb:91:22:1c:99:bd:0d:30:
                    6e:9a:1c:6f:63:7d:6e:fe:22:1f:2f:b2:9a:10:c9:
                    8d:3e:ca:f0:26:9f:a7:d4:da:2a:70:ec:68:84:12:
                    e6:0e:74:53:86:66:3b:34:bb:e6:a3:72:7e:a9:5a:
                    85:3b:49:00:3b:9c:8d:1c:be:cf:b1:15:dc:4d:33:
                    3a:36:cb:aa:ef:99:d7:87:65:34:0e:9f:64:69:64:
                    4f:6e:0a:85:86:d7:0b:de:26:d6:fe:63:59:7b:b8:
                    ce:a4:0a:2a:aa:bc:28:56:10:d2:25:bb:40:42:8c:
                    69:c4:82:49:2d:20:97:9f:fc:41:0a:f9:ee:17:ce:
                    47:d6:4a:31:21:a7:bd:ce:d8:80:6f:7b:54:21:b0:
                    1f:00:1f
                Exponent: 65537 (0x10001)
        X509v3 extensions:
            X509v3 Key Usage: critical
                Certificate Sign, CRL Sign
            X509v3 Basic Constraints: critical
                CA:TRUE, pathlen:0
            X509v3 Subject Key Identifier: 
                AF:4C:A9:87:AF:A8:6F:B8:31:15:38:B9:C8:9E:99:AA:A3:40:EA:2A
            X509v3 Authority Key Identifier: 
                keyid:AC:05:8B:21:BD:91:A0:D1:80:75:1D:46:74:2D:FE:03:5E:D9:2E:53

            Authority Information Access: 
                CA Issuers - URI:http://green.no/ca/root-ca.cer

            X509v3 CRL Distribution Points: 

                Full Name:
                  URI:http://green.no/ca/root-ca.crl

    Signature Algorithm: sha256WithRSAEncryption
         96:d0:f9:43:f1:80:f8:a7:51:c4:ca:2d:6c:97:48:88:2b:c1:
         27:ca:54:fa:19:16:20:1c:90:9c:5d:f0:c0:91:11:bf:c8:23:
         4c:06:f3:06:aa:be:80:eb:db:d5:46:6b:e3:c0:ed:d8:4d:a4:
         71:d8:7d:77:2a:e9:6b:57:41:1c:3e:c4:54:dd:0e:96:06:bc:
         4d:2f:38:70:e6:ae:32:54:13:dc:1b:a7:49:90:e2:01:5e:89:
         9d:33:7b:d7:c5:8c:b9:ce:25:a8:35:25:9e:8e:ac:c3:24:1a:
         c0:8d:61:a0:68:2d:df:58:e1:71:74:a6:1c:53:a8:cf:89:c1:
         d5:c3:65:3e:f7:89:57:11:a8:d1:f5:47:86:8f:b2:2b:cd:19:
         03:20:bd:f2:a5:46:fc:ea:c7:43:bf:85:18:41:0f:55:56:28:
         99:18:1b:bb:bb:cc:43:3f:52:09:cf:c3:05:ae:7d:1b:ad:a1:
         34:6f:d6:f0:53:ad:3e:13:69:dd:6c:fc:ba:0f:2b:4f:c7:bb:
         b0:c7:66:97:06:1d:f0:21:3d:ce:42:65:33:28:76:45:d2:0f:
         37:75:23:a8:b0:3e:6f:eb:a7:ed:5a:ea:55:e6:cb:02:6f:bf:
         01:35:ab:b6:07:c5:8a:d1:e3:d7:eb:f4:a3:e9:00:93:ee:6e:
         2b:71:2d:4c:28:58:21:55:e7:27:a8:47:81:7f:a9:71:b0:83:
         db:49:25:15:6d:da:ba:ec:5e:a2:9c:cb:68:c5:c1:e8:c7:7f:
         02:ec:0a:47:dd:7b:41:72:f0:0b:e3:b2:c6:d3:f0:fc:99:e3:
         2a:05:b1:fd:0f:86:8e:cc:5f:b6:2a:2f:63:ab:0c:fa:69:0b:
         5e:11:e9:21:c0:c1:e6:ae:16:4b:bc:51:43:82:ff:85:d9:1e:
         8a:9f:14:c9:6e:d8:a2:01:8b:91:f2:6f:1f:5d:88:53:82:c2:
         b0:f1:cf:f0:ec:38:a3:ba:66:c2:7d:0b:96:90:ba:d4:e7:2e:
         da:f4:4d:ca:49:e2:d3:a5:10:c4:cc:9c:dc:29:85:54:e2:ad:
         09:88:9a:f2:b6:d9:4c:7b:15:a7:68:56:46:f9:09:75:0f:9c:
         0a:a4:90:64:d9:11:72:2f:c8:9c:fa:a9:fa:81:85:5e:37:50:
         1f:9b:f1:2c:5f:4a:48:5f:94:fb:58:dc:3e:72:ab:6e:cd:28:
         7a:bd:45:99:b2:77:60:31:1f:fa:9f:91:3a:8b:c5:04:bc:8e:
         d5:27:65:14:fc:39:17:8b:54:e4:71:5a:d0:3a:04:ed:8c:e1:
         8f:da:f8:54:74:67:a1:e0:9c:80:20:68:90:26:be:d4:8e:b3:
         90:7f:ba:d2:15:80:b5:18
-----BEGIN CERTIFICATE-----
MIIGHjCCBAagAwIBAgIUQrR7Bs6XheIywpi9MbvUA/LhurIwDQYJKoZIhvcNAQEL
BQAwXjELMAkGA1UEBhMCTk8xETAPBgNVBAoMCEdyZWVuIEFTMSQwIgYDVQQLDBtH
cmVlbiBDZXJ0aWZpY2F0ZSBBdXRob3JpdHkxFjAUBgNVBAMMDUdyZWVuIFJvb3Qg
Q0EwHhcNMjAwNjI0MTcyMTIwWhcNMzAwNjI0MTcyMTIwWjBdMQswCQYDVQQGEwJO
TzERMA8GA1UECgwIR3JlZW4gQVMxJDAiBgNVBAsMG0dyZWVuIENlcnRpZmljYXRl
IEF1dGhvcml0eTEVMBMGA1UEAwwMR3JlZW4gVExTIENBMIICIjANBgkqhkiG9w0B
AQEFAAOCAg8AMIICCgKCAgEAwsDIawhL6Tmqu3fu6h6yqH7yK3Tz3ewbcR+CvibO
VAc5bTZYQTNrCIuO8DCtn3Yy2CKBYW1i0nahIZMpCPp1rLRfDvtQ+2cUeXQk3xH5
p03zwrYNpv7cz16K5gF1sbj5jThJCsW89Jj3W528jeZnMouwAmmzbj8W9gw0z5qB
iaED4RkQ3ZmdXT2Xw8/iu2wPyQloz+8KE44O8k9CkyhcG8HKItU0IFYOVq4R7NSP
yz9IJudIoiJ7MoL+cafSrLeG9iM1pnJGyD7OaaoEzjuzN0S5GLQjG3UKLpc2mADi
+sYfdvW1Idz2p3Qy56uo8jdhYftYMgfJXUyAhq1LcZJ4lalbPZnBFhHXy8OrETkO
ithmjWl0qJRya1DJkrjBPGkIMg7MBsA35bpMWwk+inIrfnBWwrk1RVyqKMsIpdtF
5902qnQW0XDpwd7+L3jUh0BKlbS2M/YFsKMAePNgsf73FrxqQh7uUEHllYb9NqtT
u5EiHJm9DTBumhxvY31u/iIfL7KaEMmNPsrwJp+n1NoqcOxohBLmDnRThmY7NLvm
o3J+qVqFO0kAO5yNHL7PsRXcTTM6Nsuq75nXh2U0Dp9kaWRPbgqFhtcL3ibW/mNZ
e7jOpAoqqrwoVhDSJbtAQoxpxIJJLSCXn/xBCvnuF85H1koxIae9ztiAb3tUIbAf
AB8CAwEAAaOB1DCB0TAOBgNVHQ8BAf8EBAMCAQYwEgYDVR0TAQH/BAgwBgEB/wIB
ADAdBgNVHQ4EFgQUr0yph6+ob7gxFTi5yJ6ZqqNA6iowHwYDVR0jBBgwFoAUrAWL
Ib2RoNGAdR1GdC3+A17ZLlMwOgYIKwYBBQUHAQEELjAsMCoGCCsGAQUFBzAChh5o
dHRwOi8vZ3JlZW4ubm8vY2Evcm9vdC1jYS5jZXIwLwYDVR0fBCgwJjAkoCKgIIYe
aHR0cDovL2dyZWVuLm5vL2NhL3Jvb3QtY2EuY3JsMA0GCSqGSIb3DQEBCwUAA4IC
AQCW0PlD8YD4p1HEyi1sl0iIK8EnylT6GRYgHJCcXfDAkRG/yCNMBvMGqr6A69vV
RmvjwO3YTaRx2H13KulrV0EcPsRU3Q6WBrxNLzhw5q4yVBPcG6dJkOIBXomdM3vX
xYy5ziWoNSWejqzDJBrAjWGgaC3fWOFxdKYcU6jPicHVw2U+94lXEajR9UeGj7Ir
zRkDIL3ypUb86sdDv4UYQQ9VViiZGBu7u8xDP1IJz8MFrn0braE0b9bwU60+E2nd
bPy6DytPx7uwx2aXBh3wIT3OQmUzKHZF0g83dSOosD5v66ftWupV5ssCb78BNau2
B8WK0ePX6/Sj6QCT7m4rcS1MKFghVecnqEeBf6lxsIPbSSUVbdq67F6inMtoxcHo
x38C7ApH3XtBcvAL47LG0/D8meMqBbH9D4aOzF+2Ki9jqwz6aQteEekhwMHmrhZL
vFFDgv+F2R6KnxTJbtiiAYuR8m8fXYhTgsKw8c/w7DijumbCfQuWkLrU5y7a9E3K
SeLTpRDEzJzcKYVU4q0JiJryttlMexWnaFZG+Ql1D5wKpJBk2RFyL8ic+qn6gYVe
N1Afm/EsX0pIX5T7WNw+cqtuzSh6vUWZsndgMR/6n5E6i8UEvI7VJ2UU/DkXi1Tk
cVrQOgTtjOGP2vhUdGeh4JyAIGiQJr7UjrOQf7rSFYC1GA==
-----END CERTIFICATE-----
Certificate:
    Data:
        Version: 3 (0x2)
        Serial Number:
            32:0b:a6:e5:b8:c1:2d:c5:dc:29:ef:bd:22:72:4b:42:ff:2f:c4:48
        Signature Algorithm: sha256WithRSAEncryption
        Issuer: C=NO, O=Green AS, OU=Green Certificate Authority, CN=Green Root CA
        Validity
            Not Before: Jun 24 17:21:19 2020 GMT
            Not After : Jun 24 17:21:19 2030 GMT
        Subject: C=NO, O=Green AS, OU=Green Certificate Authority, CN=Green Root CA
        Subject Public Key Info:
            Public Key Algorithm: rsaEncryption
                RSA Public-Key: (4096 bit)
                Modulus:
                    00:da:c5:a7:7d:a2:fa:bd:bc:30:57:c6:33:16:3c:
                    2a:0c:d3:d9:a0:f0:a9:d9:99:77:a4:68:e6:47:ac:
                    00:e3:3c:7d:5e:14:19:db:e4:0d:c4:dc:56:a4:35:
                    0a:db:aa:b2:ac:4f:bb:f8:99:ae:0a:5c:b2:bc:07:
                    c6:b5:46:2e:fb:f6:80:a3:7a:aa:f9:50:5d:e3:1a:
                    ed:c0:3e:c9:ef:c2:c6:8b:3c:8c:66:3b:d8:26:ad:
                    ce:4b:53:42:61:1a:ef:6c:07:b7:6b:88:f9:a7:b8:
                    ba:ce:28:b3:9a:85:2b:c6:3f:1a:8c:40:81:04:8b:
                    2f:ae:46:2e:8f:8d:8b:e7:80:b0:cb:37:ac:b1:ed:
                    c9:13:b7:a0:4c:ca:50:02:95:bc:34:59:d5:aa:39:
                    ef:61:c7:6d:65:30:65:40:4c:54:18:4f:ff:5c:97:
                    8d:2b:30:45:6f:fb:c9:36:73:48:98:b1:3d:05:56:
                    02:6e:f9:ac:99:da:9d:99:bf:66:da:77:d0:4f:cf:
                    62:c5:53:48:7e:df:f5:47:47:c3:f5:07:56:75:f4:
                    fc:9e:7d:12:29:26:0e:79:db:33:66:08:1c:8e:e3:
                    c8:78:5b:fb:ce:18:cb:e9:a0:dc:33:a1:1e:6f:0d:
                    07:d5:d8:37:6f:62:ba:69:46:b0:08:44:61:74:2f:
                    43:12:31:4d:21:63:fc:82:15:35:55:37:56:f3:8e:
                    07:b7:18:cc:57:35:b2:c0:7a:8b:e1:76:7f:73:3a:
                    b4:75:c0:dc:89:f5:63:41:ac:ce:79:9c:c7:c0:a5:
                    23:aa:88:55:47:b6:d3:27:ab:e5:e1:94:01:c9:73:
                    e8:35:b2:9d:14:1d:8f:9e:2a:0c:3a:dc:d5:8e:b9:
                    88:88:23:fe:1b:f6:1c:ab:80:7b:fc:92:56:7f:98:
                    1c:a2:e1:6a:09:f1:c6:60:8a:c9:1d:85:67:50:1b:
                    4b:10:9c:86:03:c0:69:38:57:ae:28:c9:fa:fe:66:
                    f2:0e:1c:79:8b:a4:f3:27:1b:55:f5:12:50:1d:f0:
                    6b:22:9a:8c:66:25:51:68:15:c2:44:d7:08:d3:09:
                    8e:66:e0:e5:a8:e0:17:f7:c5:0f:c1:55:55:86:40:
                    56:f3:7e:1b:cf:4f:40:63:10:f1:8d:53:23:46:d8:
                    dc:5e:6c:81:2b:3b:14:38:65:fe:94:ea:be:49:df:
                    9a:e4:36:0d:62:41:ec:bb:62:cf:8c:d0:cc:11:07:
                    3e:3d:83:bf:0e:2e:e5:18:1d:31:f9:8b:2b:c4:e4:
                    b5:a1:8a:c8:a7:bd:e5:d7:f3:76:a3:b7:db:15:25:
                    10:1a:81:df:06:33:8a:eb:ad:97:e0:2e:f3:3c:ad:
                    f5:55:57
                Exponent: 65537 (0x10001)
        X509v3 extensions:
            X509v3 Key Usage: critical
                Certificate Sign, CRL Sign
            X509v3 Basic Constraints: critical
                CA:TRUE
            X509v3 Subject Key Identifier: 
                AC:05:8B:21:BD:91:A0:D1:80:75:1D:46:74:2D:FE:03:5E:D9:2E:53
            X509v3 Authority Key Identifier: 
                keyid:AC:05:8B:21:BD:91:A0:D1:80:75:1D:46:74:2D:FE:03:5E:D9:2E:53

    Signature Algorithm: sha256WithRSAEncryption
         14:50:20:1e:12:05:b2:48:df:0d:b5:38:0d:e9:40:a3:0d:64:
         26:6c:d4:4e:a1:9c:c2:6e:04:a3:d6:6f:ae:f5:00:8b:c9:6c:
         6c:07:f2:49:54:0e:3c:2d:22:8c:48:37:84:0b:48:95:55:ec:
         a4:62:34:56:bc:32:f1:6f:89:96:e1:8f:8f:80:37:c8:c2:db:
         e6:db:63:a9:ce:b4:ce:f0:74:ff:06:b8:65:04:e5:ea:11:c0:
         a5:65:05:6e:98:36:9a:86:d0:a6:94:81:51:04:c2:f1:fc:d1:
         f8:7e:66:32:c9:95:71:b1:15:2b:e1:a3:f9:da:e2:39:8d:2f:
         78:e8:15:22:cb:4e:ff:f5:80:5e:cd:11:5c:a6:6d:40:d6:31:
         37:8e:38:5f:5a:a2:47:55:fa:76:93:6c:cf:ef:a2:2c:1b:db:
         49:fa:ad:c6:f7:58:46:8d:e0:77:eb:ce:a4:0d:a1:ce:1b:88:
         d3:b0:48:81:70:b7:b8:5a:4a:84:b8:5e:51:43:87:90:da:c2:
         02:1a:81:82:ca:6c:d2:3f:a8:86:ff:6f:50:8e:c4:a3:9a:26:
         5e:59:e2:b5:0c:7b:d4:6c:cf:03:aa:b1:b3:a2:cd:6f:3d:14:
         5b:e8:a8:cb:4a:50:c9:de:0b:b1:ba:9b:3c:f9:0f:8c:2e:3f:
         78:b2:d3:a5:5f:14:7b:7c:53:f4:ee:e9:f5:ab:05:a5:f2:64:
         65:21:82:a5:98:8e:4b:6e:5a:f7:98:f5:c1:91:84:b0:47:be:
         a2:07:22:d2:11:62:5a:ac:7d:da:a6:db:2d:e3:ed:40:1c:25:
         3a:c2:9c:87:9a:88:99:6c:9f:98:94:1e:fc:94:d8:17:6b:a8:
         62:73:02:ca:64:d3:41:a1:3b:d8:3f:87:d0:66:fc:ac:b3:03:
         0b:ea:bc:91:d6:82:0b:aa:8d:fa:15:e6:1b:36:91:16:0e:0c:
         28:75:d2:e9:ba:49:fc:ff:b3:d2:e1:d7:82:0c:9d:7d:1b:df:
         d3:50:04:62:7e:1c:99:11:1b:92:e5:f4:9b:66:a4:88:00:56:
         0e:4a:1e:20:dd:17:b4:b1:e1:c5:7f:7d:84:c8:2a:84:b3:6a:
         bc:91:56:91:67:ee:7c:55:d0:6d:ee:22:5a:9f:13:05:e2:0b:
         37:f0:63:80:0d:52:94:d7:b7:d3:a3:21:38:f7:46:1d:58:6a:
         bc:60:0e:9c:41:e3:8d:4e:8d:43:ce:71:9e:be:43:a2:24:d6:
         c3:dd:6b:53:f4:18:03:10:c9:81:45:e4:ea:c1:78:3e:e9:a3:
         2b:a2:21:34:ef:bd:65:42:d0:92:7a:aa:ff:9e:e0:9f:0d:b2:
         2b:60:98:46:6d:61:92:b7
-----BEGIN CERTIFICATE-----
MIIFrTCCA5WgAwIBAgIUMgum5bjBLcXcKe+9InJLQv8vxEgwDQYJKoZIhvcNAQEL
BQAwXjELMAkGA1UEBhMCTk8xETAPBgNVBAoMCEdyZWVuIEFTMSQwIgYDVQQLDBtH
cmVlbiBDZXJ0aWZpY2F0ZSBBdXRob3JpdHkxFjAUBgNVBAMMDUdyZWVuIFJvb3Qg
Q0EwHhcNMjAwNjI0MTcyMTE5WhcNMzAwNjI0MTcyMTE5WjBeMQswCQYDVQQGEwJO
TzERMA8GA1UECgwIR3JlZW4gQVMxJDAiBgNVBAsMG0dyZWVuIENlcnRpZmljYXRl
IEF1dGhvcml0eTEWMBQGA1UEAwwNR3JlZW4gUm9vdCBDQTCCAiIwDQYJKoZIhvcN
AQEBBQADggIPADCCAgoCggIBANrFp32i+r28MFfGMxY8KgzT2aDwqdmZd6Ro5kes
AOM8fV4UGdvkDcTcVqQ1CtuqsqxPu/iZrgpcsrwHxrVGLvv2gKN6qvlQXeMa7cA+
ye/Cxos8jGY72CatzktTQmEa72wHt2uI+ae4us4os5qFK8Y/GoxAgQSLL65GLo+N
i+eAsMs3rLHtyRO3oEzKUAKVvDRZ1ao572HHbWUwZUBMVBhP/1yXjSswRW/7yTZz
SJixPQVWAm75rJnanZm/Ztp30E/PYsVTSH7f9UdHw/UHVnX0/J59EikmDnnbM2YI
HI7jyHhb+84Yy+mg3DOhHm8NB9XYN29iumlGsAhEYXQvQxIxTSFj/IIVNVU3VvOO
B7cYzFc1ssB6i+F2f3M6tHXA3In1Y0Gsznmcx8ClI6qIVUe20yer5eGUAclz6DWy
nRQdj54qDDrc1Y65iIgj/hv2HKuAe/ySVn+YHKLhagnxxmCKyR2FZ1AbSxCchgPA
aThXrijJ+v5m8g4ceYuk8ycbVfUSUB3wayKajGYlUWgVwkTXCNMJjmbg5ajgF/fF
D8FVVYZAVvN+G89PQGMQ8Y1TI0bY3F5sgSs7FDhl/pTqvknfmuQ2DWJB7Ltiz4zQ
zBEHPj2Dvw4u5RgdMfmLK8TktaGKyKe95dfzdqO32xUlEBqB3wYziuutl+Au8zyt
9VVXAgMBAAGjYzBhMA4GA1UdDwEB/wQEAwIBBjAPBgNVHRMBAf8EBTADAQH/MB0G
A1UdDgQWBBSsBYshvZGg0YB1HUZ0Lf4DXtkuUzAfBgNVHSMEGDAWgBSsBYshvZGg
0YB1HUZ0Lf4DXtkuUzANBgkqhkiG9w0BAQsFAAOCAgEAFFAgHhIFskjfDbU4DelA
ow1kJmzUTqGcwm4Eo9ZvrvUAi8lsbAfySVQOPC0ijEg3hAtIlVXspGI0Vrwy8W+J
luGPj4A3yMLb5ttjqc60zvB0/wa4ZQTl6hHApWUFbpg2mobQppSBUQTC8fzR+H5m
MsmVcbEVK+Gj+driOY0veOgVIstO//WAXs0RXKZtQNYxN444X1qiR1X6dpNsz++i
LBvbSfqtxvdYRo3gd+vOpA2hzhuI07BIgXC3uFpKhLheUUOHkNrCAhqBgsps0j+o
hv9vUI7Eo5omXlnitQx71GzPA6qxs6LNbz0UW+ioy0pQyd4LsbqbPPkPjC4/eLLT
pV8Ue3xT9O7p9asFpfJkZSGCpZiOS25a95j1wZGEsEe+ogci0hFiWqx92qbbLePt
QBwlOsKch5qImWyfmJQe/JTYF2uoYnMCymTTQaE72D+H0Gb8rLMDC+q8kdaCC6qN
+hXmGzaRFg4MKHXS6bpJ/P+z0uHXggydfRvf01AEYn4cmREbkuX0m2akiABWDkoe
IN0XtLHhxX99hMgqhLNqvJFWkWfufFXQbe4iWp8TBeILN/BjgA1SlNe306MhOPdG
HVhqvGAOnEHjjU6NQ85xnr5DoiTWw91rU/QYAxDJgUXk6sF4PumjK6IhNO+9ZULQ
knqq/57gnw2yK2CYRm1hkrc=
-----END CERTIFICATE-----
