Certificate:
    Data:
        Version: 3 (0x2)
        Serial Number:
            6f:22:7d:29:18:70:d9:4b:9b:b4:b0:78:b5:16:bc:e5:3b:a1:7c:16
        Signature Algorithm: sha256WithRSAEncryption
        Issuer: C=NO, O=Green AS, OU=Green Certificate Authority, CN=Green TLS CA
        Validity
            Not Before: Jun 24 17:21:27 2020 GMT
            Not After : Jun 24 17:21:27 2022 GMT
        Subject: C=NO, O=Green AS, OU=Green Certificate Authority, CN=axonserver
        Subject Public Key Info:
            Public Key Algorithm: rsaEncryption
                RSA Public-Key: (4096 bit)
                Modulus:
                    00:ed:7f:4d:e3:90:69:a1:49:b4:e9:f7:c2:76:7d:
                    78:01:7d:7d:de:4a:b2:dc:9a:53:0e:72:9d:d3:27:
                    63:fa:f4:3c:f9:af:1b:0a:11:e1:53:73:30:be:ec:
                    e0:a9:c3:2d:be:88:24:6b:4e:9d:6f:4b:6a:8c:41:
                    ac:2e:2c:48:7a:b7:72:4b:72:3e:17:8d:30:43:23:
                    e5:4a:a1:a9:93:3c:10:73:cb:b0:19:3a:50:63:d4:
                    2d:27:67:4f:1e:a6:e6:e3:33:d4:25:7c:d8:b9:29:
                    0f:19:ee:97:70:1e:a1:5d:ce:67:7e:dd:d4:aa:91:
                    d7:7a:c9:12:cd:60:71:98:dd:a6:0f:60:37:14:96:
                    db:87:c2:13:42:a6:35:09:72:a4:c4:4b:c4:a5:2b:
                    04:99:4e:f2:85:3f:1f:27:84:ad:db:eb:19:cd:5c:
                    01:a1:08:55:b4:cd:40:22:6d:1d:7f:6a:c0:d3:32:
                    cc:64:e8:8a:45:19:08:36:32:d1:7b:65:e0:d4:a9:
                    1b:7b:89:5e:7a:8f:68:a9:9b:8c:ba:12:1c:bd:e8:
                    af:fd:13:f7:5d:a6:42:83:b8:a7:9b:e1:b1:c2:d6:
                    0a:dc:ea:8a:45:24:b6:d7:b4:57:48:7f:ef:92:1f:
                    8f:8f:61:d6:80:4c:f4:d1:f8:63:cb:d3:7f:8a:84:
                    dc:1f:75:d0:32:ac:45:c1:0d:f2:f7:91:75:04:ce:
                    d5:ed:bf:fb:af:d2:e0:85:7f:e2:8b:a1:2f:03:c5:
                    18:21:94:4c:a8:4a:c5:dc:22:da:0c:af:e9:71:dc:
                    23:ba:5f:a6:52:de:78:a6:c7:f7:d7:64:1e:68:68:
                    83:4d:50:9a:b8:a6:6b:b0:8f:37:74:bb:2f:db:dc:
                    34:3d:4a:09:35:2f:78:68:37:7c:f4:0c:78:f8:2b:
                    41:21:94:57:79:1b:8a:db:97:84:e9:ae:d3:fe:75:
                    c3:18:21:aa:ff:da:b1:ed:39:a0:92:c5:d4:14:e5:
                    ef:82:cd:fe:7b:38:df:26:fa:49:ce:aa:4b:54:43:
                    dc:6a:12:85:64:a8:46:4f:7b:2a:d7:fa:d9:a8:ea:
                    18:e5:f3:c8:81:a3:0c:cd:2f:1f:32:9c:5e:cf:85:
                    01:a4:2c:da:91:e2:77:a2:eb:cf:ae:74:25:03:9f:
                    45:fc:11:bd:28:be:ff:f3:c9:5e:04:6e:4a:1c:97:
                    60:1f:71:1c:1f:0d:0d:b9:3b:a3:68:a8:96:a1:ca:
                    30:e0:c4:f6:9b:5c:e0:60:19:eb:5a:e8:9f:fe:88:
                    b3:d4:51:82:66:f5:c6:0e:06:84:40:2e:a2:b5:da:
                    5a:0d:6d:b3:51:c0:3d:03:c0:be:45:2d:17:f1:31:
                    33:7f:67
                Exponent: 65537 (0x10001)
        X509v3 extensions:
            X509v3 Key Usage: critical
                Digital Signature, Key Encipherment
            X509v3 Basic Constraints: 
                CA:FALSE
            X509v3 Extended Key Usage: 
                TLS Web Server Authentication, TLS Web Client Authentication
            X509v3 Subject Key Identifier: 
                B7:B6:1A:18:E9:40:94:2D:0B:85:1E:AB:D0:9A:4E:6A:8B:22:66:EC
            X509v3 Authority Key Identifier: 
                keyid:AF:4C:A9:87:AF:A8:6F:B8:31:15:38:B9:C8:9E:99:AA:A3:40:EA:2A

            Authority Information Access: 
                CA Issuers - URI:http://green.no/ca/tls-ca.cer

            X509v3 CRL Distribution Points: 

                Full Name:
                  URI:http://green.no/ca/tls-ca.crl

            X509v3 Subject Alternative Name: 
                DNS:green.no, DNS:www.green.no, DNS:localhost, DNS:host.docker.internal
    Signature Algorithm: sha256WithRSAEncryption
         99:99:f9:1b:d1:a2:6c:67:5f:74:40:18:ff:fe:3c:f7:a9:ce:
         eb:7a:78:32:ef:71:57:d3:b1:69:bf:75:76:04:34:ca:ee:01:
         ec:19:8d:82:30:9a:69:b7:93:8e:78:4b:91:2a:9c:06:f2:99:
         59:11:cf:0e:71:8a:27:94:6f:fd:37:a7:64:af:ca:89:ea:53:
         07:d7:a5:c7:37:18:b1:ad:bf:4d:a2:7a:65:f2:04:d5:16:0d:
         2b:e8:fb:33:0e:fd:70:a8:38:53:77:35:a5:1e:be:d8:f6:bc:
         1c:17:ed:ed:d6:c8:78:60:17:77:51:30:55:0a:ee:c1:11:67:
         a3:89:26:97:76:05:55:bc:0e:74:96:c9:36:7d:6d:3c:3d:3b:
         c0:76:88:79:54:ef:de:52:fa:df:0b:86:40:da:82:70:52:1d:
         c2:4d:c7:13:dc:05:cf:c0:27:2d:b7:20:5d:5c:71:69:13:47:
         75:1b:d4:16:c4:9f:58:ca:ed:54:c7:f1:bc:4a:4a:72:1f:08:
         4c:3f:d9:af:60:80:57:52:76:36:b1:f5:2c:b8:6d:49:8c:03:
         bc:cd:9d:7d:31:ab:3f:a2:fb:52:fa:f4:c2:a6:ca:bc:2f:0c:
         75:f5:6f:c9:37:53:4f:dd:5e:b2:88:f1:d6:53:3d:86:0f:2b:
         50:37:10:37:b6:0e:32:df:12:01:6d:26:0f:65:4b:ca:69:84:
         4a:b2:37:b5:c0:79:81:cc:ad:05:a3:9e:91:91:62:e2:64:51:
         5f:83:a6:a4:eb:43:d3:e9:89:97:c6:2e:47:e5:bb:d3:34:b4:
         d3:54:ad:0e:fd:0b:1e:2f:07:b7:da:47:7f:05:42:12:77:e6:
         58:82:53:7e:9c:d1:a2:86:81:3f:6a:3a:fc:d2:b0:55:e4:ab:
         6f:16:d4:3b:e7:23:f6:f0:c0:4d:96:c5:fb:20:4c:9e:e2:4b:
         8e:f0:b2:15:16:49:e8:bd:8c:bb:44:a3:66:96:b2:a3:83:2a:
         ac:86:34:f9:a5:f4:de:60:37:26:f6:66:b5:f4:b3:2f:8e:1a:
         38:8c:53:6e:62:6d:25:45:8f:5c:82:33:64:db:cb:de:04:6f:
         37:21:21:c3:c0:2a:1b:a3:85:bf:9c:41:2a:36:76:9d:41:24:
         24:3c:a4:db:a7:82:86:70:1b:00:95:a1:1c:b9:0c:9a:98:cc:
         f5:15:3c:a0:6d:25:86:ea:a8:24:b0:36:15:7c:40:fe:dd:4e:
         3a:3e:72:04:a9:91:f4:83:98:03:4e:af:6d:15:4e:36:02:77:
         52:65:32:85:f3:37:b6:be:b3:90:03:6e:ed:9e:38:6c:b0:ed:
         30:20:c8:cb:1c:15:01:91
-----BEGIN CERTIFICATE-----
MIIGdTCCBF2gAwIBAgIUbyJ9KRhw2UubtLB4tRa85TuhfBYwDQYJKoZIhvcNAQEL
BQAwXTELMAkGA1UEBhMCTk8xETAPBgNVBAoMCEdyZWVuIEFTMSQwIgYDVQQLDBtH
cmVlbiBDZXJ0aWZpY2F0ZSBBdXRob3JpdHkxFTATBgNVBAMMDEdyZWVuIFRMUyBD
QTAeFw0yMDA2MjQxNzIxMjdaFw0yMjA2MjQxNzIxMjdaMFsxCzAJBgNVBAYTAk5P
MREwDwYDVQQKDAhHcmVlbiBBUzEkMCIGA1UECwwbR3JlZW4gQ2VydGlmaWNhdGUg
QXV0aG9yaXR5MRMwEQYDVQQDDApheG9uc2VydmVyMIICIjANBgkqhkiG9w0BAQEF
AAOCAg8AMIICCgKCAgEA7X9N45BpoUm06ffCdn14AX193kqy3JpTDnKd0ydj+vQ8
+a8bChHhU3MwvuzgqcMtvogka06db0tqjEGsLixIerdyS3I+F40wQyPlSqGpkzwQ
c8uwGTpQY9QtJ2dPHqbm4zPUJXzYuSkPGe6XcB6hXc5nft3UqpHXeskSzWBxmN2m
D2A3FJbbh8ITQqY1CXKkxEvEpSsEmU7yhT8fJ4St2+sZzVwBoQhVtM1AIm0df2rA
0zLMZOiKRRkINjLRe2Xg1Kkbe4leeo9oqZuMuhIcveiv/RP3XaZCg7inm+GxwtYK
3OqKRSS217RXSH/vkh+Pj2HWgEz00fhjy9N/ioTcH3XQMqxFwQ3y95F1BM7V7b/7
r9LghX/ii6EvA8UYIZRMqErF3CLaDK/pcdwjul+mUt54psf312QeaGiDTVCauKZr
sI83dLsv29w0PUoJNS94aDd89Ax4+CtBIZRXeRuK25eE6a7T/nXDGCGq/9qx7Tmg
ksXUFOXvgs3+ezjfJvpJzqpLVEPcahKFZKhGT3sq1/rZqOoY5fPIgaMMzS8fMpxe
z4UBpCzakeJ3ouvPrnQlA59F/BG9KL7/88leBG5KHJdgH3EcHw0NuTujaKiWocow
4MT2m1zgYBnrWuif/oiz1FGCZvXGDgaEQC6itdpaDW2zUcA9A8C+RS0X8TEzf2cC
AwEAAaOCAS0wggEpMA4GA1UdDwEB/wQEAwIFoDAJBgNVHRMEAjAAMB0GA1UdJQQW
MBQGCCsGAQUFBwMBBggrBgEFBQcDAjAdBgNVHQ4EFgQUt7YaGOlAlC0LhR6r0JpO
aosiZuwwHwYDVR0jBBgwFoAUr0yph6+ob7gxFTi5yJ6ZqqNA6iowOQYIKwYBBQUH
AQEELTArMCkGCCsGAQUFBzAChh1odHRwOi8vZ3JlZW4ubm8vY2EvdGxzLWNhLmNl
cjAuBgNVHR8EJzAlMCOgIaAfhh1odHRwOi8vZ3JlZW4ubm8vY2EvdGxzLWNhLmNy
bDBCBgNVHREEOzA5gghncmVlbi5ub4IMd3d3LmdyZWVuLm5vgglsb2NhbGhvc3SC
FGhvc3QuZG9ja2VyLmludGVybmFsMA0GCSqGSIb3DQEBCwUAA4ICAQCZmfkb0aJs
Z190QBj//jz3qc7rengy73FX07Fpv3V2BDTK7gHsGY2CMJppt5OOeEuRKpwG8plZ
Ec8OcYonlG/9N6dkr8qJ6lMH16XHNxixrb9Nonpl8gTVFg0r6PszDv1wqDhTdzWl
Hr7Y9rwcF+3t1sh4YBd3UTBVCu7BEWejiSaXdgVVvA50lsk2fW08PTvAdoh5VO/e
UvrfC4ZA2oJwUh3CTccT3AXPwCcttyBdXHFpE0d1G9QWxJ9Yyu1Ux/G8SkpyHwhM
P9mvYIBXUnY2sfUsuG1JjAO8zZ19Mas/ovtS+vTCpsq8Lwx19W/JN1NP3V6yiPHW
Uz2GDytQNxA3tg4y3xIBbSYPZUvKaYRKsje1wHmBzK0Fo56RkWLiZFFfg6ak60PT
6YmXxi5H5bvTNLTTVK0O/QseLwe32kd/BUISd+ZYglN+nNGihoE/ajr80rBV5Ktv
FtQ75yP28MBNlsX7IEye4kuO8LIVFknovYy7RKNmlrKjgyqshjT5pfTeYDcm9ma1
9LMvjho4jFNuYm0lRY9cgjNk28veBG83ISHDwCobo4W/nEEqNnadQSQkPKTbp4KG
cBsAlaEcuQyamMz1FTygbSWG6qgksDYVfED+3U46PnIEqZH0g5gDTq9tFU42AndS
ZTKF8ze2vrOQA27tnjhssO0wIMjLHBUBkQ==
-----END CERTIFICATE-----
